; Function Attrs: null_pointer_is_valid sspstrong uwtable
define internal void @mark_target_block(ptr noundef readonly captures(none) %0, ptr readnone captures(none) %1, ptr noundef readonly captures(none) %2) #2 {
  %4 = load ptr, ptr %2, align 8
  %5 = getelementptr inbounds nuw i8, ptr %2, i64 8
  %6 = load ptr, ptr %5, align 8
  %7 = getelementptr inbounds nuw i8, ptr %2, i64 16
  %8 = load ptr, ptr %7, align 8
  %9 = getelementptr inbounds nuw i8, ptr %2, i64 24
  %10 = load ptr, ptr %9, align 8
  %11 = load i64, ptr %0, align 8
  %12 = tail call ptr (ptr, ptr, ptr, ptr, ...) @expert_add_info_format(ptr noundef %4, ptr noundef %6, ptr noundef %8, ptr noundef nonnull @.str.342, ptr noundef %10, i64 noundef %11)
  ret void
}